target datalayout = "e-m:e-p270:32:32-p271:32:32-p272:64:64-i64:64-i128:128-f80:128-n8:16:32:64-S128"
target triple = "x86_64-pc-linux-gnu"

%struct.lua_State = type { ptr, i8, i8, i8, i8, i16, %union.StkIdRel, ptr, ptr, %union.StkIdRel, %union.StkIdRel, ptr, %union.StkIdRel, ptr, ptr, ptr, %struct.CallInfo, ptr, i64, i32, i32, i32, i32, i32, %struct.anon.2 }
%union.StkIdRel = type { ptr }
%struct.CallInfo = type { %union.StkIdRel, %union.StkIdRel, ptr, ptr, %union.anon, %union.anon.1, i32 }
%union.anon = type { %struct.anon.0 }
%struct.anon.0 = type { ptr, i64, i64 }
%union.anon.1 = type { i32 }
%struct.anon.2 = type { i32, i32 }
%struct.global_State = type { ptr, ptr, i64, i64, i64, i64, %struct.stringtable, %struct.TValue, %struct.TValue, i32, [6 x i8], i8, i8, i8, i8, i8, i8, ptr, ptr, ptr, ptr, ptr, ptr, ptr, ptr, ptr, ptr, ptr, ptr, ptr, ptr, ptr, ptr, ptr, ptr, ptr, ptr, ptr, [25 x ptr], [9 x ptr], [53 x [2 x ptr]], ptr, ptr }
%struct.stringtable = type { ptr, i32, i32 }
%struct.TValue = type { %union.Value, i8 }
%union.Value = type { ptr }

; Function Attrs: nounwind uwtable
define internal void @setminordebt(ptr noundef %0) #0 {
  %2 = alloca ptr, align 8
  store ptr %0, ptr %2, align 8, !tbaa !22
  %3 = load ptr, ptr %2, align 8, !tbaa !22
  %4 = load ptr, ptr %2, align 8, !tbaa !22
  %5 = getelementptr inbounds nuw %struct.global_State, ptr %4, i32 0, i32 10
  %6 = getelementptr inbounds [6 x i8], ptr %5, i64 0, i64 0
  %7 = load i8, ptr %6, align 4, !tbaa !37
  %8 = load ptr, ptr %2, align 8, !tbaa !22
  %9 = getelementptr inbounds nuw %struct.global_State, ptr %8, i32 0, i32 5
  %10 = load i64, ptr %9, align 8, !tbaa !66
  %11 = call i64 @luaO_applyparam(i8 noundef zeroext %7, i64 noundef %10)
  call void @luaE_setdebt(ptr noundef %3, i64 noundef %11)
  ret void
}

; Function Attrs: nounwind uwtable
define hidden void @luaC_runtilstate(ptr noundef %0, i32 noundef %1, i32 noundef %2) #0 {
  %4 = alloca ptr, align 8
  %5 = alloca i32, align 4
  %6 = alloca i32, align 4
  %7 = alloca ptr, align 8
  store ptr %0, ptr %4, align 8, !tbaa !4
  store i32 %1, ptr %5, align 4, !tbaa !65
  store i32 %2, ptr %6, align 4, !tbaa !65
  call void @llvm.lifetime.start.p0(i64 8, ptr %7) #6
  %8 = load ptr, ptr %4, align 8, !tbaa !4
  %9 = getelementptr inbounds nuw %struct.lua_State, ptr %8, i32 0, i32 7
  %10 = load ptr, ptr %9, align 8, !tbaa !11
  store ptr %10, ptr %7, align 8, !tbaa !22
  br label %11

11:                                               ; preds = %18, %3
  %12 = load i32, ptr %5, align 4, !tbaa !65
  %13 = load ptr, ptr %7, align 8, !tbaa !22
  %14 = getelementptr inbounds nuw %struct.global_State, ptr %13, i32 0, i32 12
  %15 = load i8, ptr %14, align 1, !tbaa !23
  %16 = zext i8 %15 to i32
  %17 = icmp ne i32 %12, %16
  br i1 %17, label %18, label %22

18:                                               ; preds = %11
  %19 = load ptr, ptr %4, align 8, !tbaa !4
  %20 = load i32, ptr %6, align 4, !tbaa !65
  %21 = call i64 @singlestep(ptr noundef %19, i32 noundef %20)
  br label %11

22:                                               ; preds = %11
  call void @llvm.lifetime.end.p0(i64 8, ptr %7) #6
  ret void
}

; Function Attrs: nounwind uwtable
define internal void @entergen(ptr noundef %0, ptr noundef %1) #0 {
  %3 = alloca ptr, align 8
  %4 = alloca ptr, align 8
  store ptr %0, ptr %3, align 8, !tbaa !4
  store ptr %1, ptr %4, align 8, !tbaa !22
  %5 = load ptr, ptr %3, align 8, !tbaa !4
  call void @luaC_runtilstate(ptr noundef %5, i32 noundef 8, i32 noundef 1)
  %6 = load ptr, ptr %3, align 8, !tbaa !4
  call void @luaC_runtilstate(ptr noundef %6, i32 noundef 0, i32 noundef 1)
  %7 = load ptr, ptr %3, align 8, !tbaa !4
  call void @atomic(ptr noundef %7)
  %8 = load ptr, ptr %3, align 8, !tbaa !4
  %9 = load ptr, ptr %4, align 8, !tbaa !22
  call void @atomic2gen(ptr noundef %8, ptr noundef %9)
  %10 = load ptr, ptr %4, align 8, !tbaa !22
  call void @setminordebt(ptr noundef %10)
  ret void
}