; Function Attrs: nounwind uwtable
define internal fastcc void @entergen(ptr noundef %0, ptr noundef %1) unnamed_addr #0 {
  %3 = getelementptr inbounds nuw i8, ptr %0, i64 24
  %4 = load ptr, ptr %3, align 8, !tbaa !4
  %5 = getelementptr inbounds nuw i8, ptr %4, i64 107
  %6 = load i8, ptr %5, align 1, !tbaa !20
  %.not4.i = icmp eq i8 %6, 8
  br i1 %.not4.i, label %.lr.ph.i7.preheader, label %.lr.ph.i

.lr.ph.i:                                         ; preds = %2, %.lr.ph.i
  %7 = tail call fastcc i64 @singlestep(ptr noundef %0, i32 noundef 1)
  %8 = load i8, ptr %5, align 1, !tbaa !20
  %.not.i = icmp eq i8 %8, 8
  br i1 %.not.i, label %luaC_runtilstate.exit, label %.lr.ph.i

luaC_runtilstate.exit:                            ; preds = %.lr.ph.i
  %.pre = load ptr, ptr %3, align 8, !tbaa !4
  %.phi.trans.insert = getelementptr inbounds nuw i8, ptr %.pre, i64 107
  %.pre10 = load i8, ptr %.phi.trans.insert, align 1, !tbaa !20
  %9 = icmp eq i8 %.pre10, 0
  br i1 %9, label %luaC_runtilstate.exit9, label %.lr.ph.i7.preheader

.lr.ph.i7.preheader:                              ; preds = %2, %luaC_runtilstate.exit
  %.pn = phi ptr [ %.pre, %luaC_runtilstate.exit ], [ %4, %2 ]
  %10 = getelementptr inbounds nuw i8, ptr %.pn, i64 107
  br label %.lr.ph.i7

.lr.ph.i7:                                        ; preds = %.lr.ph.i7.preheader, %.lr.ph.i7
  %11 = tail call fastcc i64 @singlestep(ptr noundef %0, i32 noundef 1)
  %12 = load i8, ptr %10, align 1, !tbaa !20
  %.not.i8 = icmp eq i8 %12, 0
  br i1 %.not.i8, label %luaC_runtilstate.exit9, label %.lr.ph.i7

luaC_runtilstate.exit9:                           ; preds = %.lr.ph.i7, %luaC_runtilstate.exit
  tail call fastcc void @atomic(ptr noundef %0)
  tail call fastcc void @atomic2gen(ptr noundef %0, ptr noundef %1)
  %13 = getelementptr inbounds nuw i8, ptr %1, i64 100
  %14 = load i8, ptr %13, align 4, !tbaa !33
  %15 = getelementptr inbounds nuw i8, ptr %1, i64 40
  %16 = load i64, ptr %15, align 8, !tbaa !55
  %17 = tail call i64 @luaO_applyparam(i8 noundef zeroext %14, i64 noundef %16) #8
  tail call void @luaE_setdebt(ptr noundef %1, i64 noundef %17) #8
  ret void
}